; Function Attrs: mustprogress nofree norecurse nosync nounwind memory(readwrite, inaccessiblemem: none) uwtable
define void @_ZN8QuantLib22DiscretizedConvertible9addCouponEm(ptr nocapture noundef nonnull readonly align 8 dereferenceable(496) %this, i64 noundef %i) local_unnamed_addr #12 align 2 {
entry:
  %couponAmounts_ = getelementptr inbounds nuw i8, ptr %this, i64 384
  %0 = load ptr, ptr %couponAmounts_, align 8, !tbaa !59
  %add.ptr.i = getelementptr inbounds nuw double, ptr %0, i64 %i
  %1 = load double, ptr %add.ptr.i, align 8, !tbaa !73
  %values_ = getelementptr inbounds nuw i8, ptr %this, i64 32
  %2 = load ptr, ptr %values_, align 8, !tbaa !69
  %n_.i.i = getelementptr inbounds nuw i8, ptr %this, i64 40
  %3 = load i64, ptr %n_.i.i, align 8, !tbaa !114
  %add.ptr.i.i = getelementptr inbounds nuw double, ptr %2, i64 %3
  %cmp.not5.i.i = icmp eq i64 %3, 0
  br i1 %cmp.not5.i.i, label %_ZN8QuantLib5ArraypLEd.exit, label %for.body.i.i

for.body.i.i:                                     ; preds = %entry, %for.body.i.i
  %__result.addr.07.i.i = phi ptr [ %incdec.ptr1.i.i, %for.body.i.i ], [ %2, %entry ]
  %4 = load double, ptr %__result.addr.07.i.i, align 8, !tbaa !73
  %add.i.i.i = fadd double %1, %4
  store double %add.i.i.i, ptr %__result.addr.07.i.i, align 8, !tbaa !73
  %incdec.ptr1.i.i = getelementptr i8, ptr %__result.addr.07.i.i, i64 8
  %cmp.not.i.i = icmp eq ptr %incdec.ptr1.i.i, %add.ptr.i.i
  br i1 %cmp.not.i.i, label %_ZN8QuantLib5ArraypLEd.exit, label %for.body.i.i, !llvm.loop !122

_ZN8QuantLib5ArraypLEd.exit:                      ; preds = %for.body.i.i, %entry
  ret void
}